target datalayout = "e-m:e-p270:32:32-p271:32:32-p272:64:64-i64:64-i128:128-f80:128-n8:16:32:64-S128"
target triple = "x86_64-unknown-linux-gnu"

%struct.MigrationIncomingState = type { ptr, [2 x ptr], ptr, ptr, %struct.QemuSemaphore, %struct.QemuEvent, %struct.AnnounceTimer, i64, i8, %struct.QemuThread, i8, i8, %struct.QemuThread, i32, i32, ptr, %struct.QemuMutex, ptr, i32, ptr, %struct.QemuSemaphore, %struct.QemuThread, i32, %struct.QemuMutex, ptr, ptr, ptr, ptr, i32, ptr, ptr, %struct.QemuSemaphore, ptr, %struct.QemuSemaphore, %struct.QemuSemaphore, %struct.QemuSemaphore, ptr, ptr, i32, %struct.QemuMutex, %struct.QemuCond, i32 }
%struct.QemuEvent = type { i32, i8 }
%struct.AnnounceTimer = type { ptr, %struct.AnnounceParameters, i32, i32 }
%struct.AnnounceParameters = type { i64, i64, i64, i64, i8, ptr, ptr }
%struct.QemuThread = type { i64 }
%struct.QemuSemaphore = type { %struct.QemuMutex, %struct.QemuCond, i32 }
%struct.QemuMutex = type { %union.pthread_mutex_t, i8 }
%union.pthread_mutex_t = type { %struct.__pthread_mutex_s }
%struct.__pthread_mutex_s = type { i32, i32, i32, i32, i32, i16, i16, %struct.__pthread_internal_list }
%struct.__pthread_internal_list = type { ptr, ptr }
%struct.QemuCond = type { %union.pthread_cond_t, i8 }
%union.pthread_cond_t = type { %struct.__pthread_cond_s }
%struct.__pthread_cond_s = type { %union.__atomic_wide_counter, %union.__atomic_wide_counter, [2 x i32], [2 x i32], i32, i32, [2 x i32] }
%union.__atomic_wide_counter = type { i64 }
%struct.MigrationAddress = type { i32, %union.anon.0 }
%union.anon.0 = type { %struct.SocketAddress }
%struct.SocketAddress = type { i32, %union.anon.1 }
%union.anon.1 = type { %struct.InetSocketAddress }
%struct.InetSocketAddress = type { ptr, ptr, i8, i8, i8, i16, i8, i8, i8, i8, i8, i8, i8, i8 }
%struct.MigrationExecCommand = type { ptr }
%struct.MigrationChannel = type { i32, ptr }
%struct.MigrationChannelList = type { ptr, ptr }
%struct.String = type { ptr }

@.str.2 = private unnamed_addr constant [30 x i8] c"../qemu/migration/migration.c\00", align 1
@current_incoming = internal global ptr null, align 8
@.str.6 = private unnamed_addr constant [17 x i8] c"current_incoming\00", align 1
@__PRETTY_FUNCTION__.migration_incoming_get_current = private unnamed_addr constant [61 x i8] c"MigrationIncomingState *migration_incoming_get_current(void)\00", align 1
@.str.19 = private unnamed_addr constant [31 x i8] c"unknown migration protocol: %s\00", align 1
@.str.36 = private unnamed_addr constant [39 x i8] c"Channel list has more than one entries\00", align 1
@__func__.qemu_start_incoming_migration = private unnamed_addr constant [30 x i8] c"qemu_start_incoming_migration\00", align 1
@.str.78 = private unnamed_addr constant [131 x i8] c"'uri' and 'channels' arguments are mutually exclusive; exactly one of the two should be present in 'migrate-incoming' qmp command \00", align 1
@.str.79 = private unnamed_addr constant [86 x i8] c"neither 'uri' or 'channels' argument are specified in 'migrate-incoming' qmp command \00", align 1
@__func__.migration_channels_and_transport_compatible = private unnamed_addr constant [44 x i8] c"migration_channels_and_transport_compatible\00", align 1
@.str.80 = private unnamed_addr constant [49 x i8] c"Migration requires multi-channel URIs (e.g. tcp)\00", align 1

; Function Attrs: nounwind sspstrong uwtable
define internal void @glib_autoptr_clear_MigrationChannel(ptr noundef %_ptr) #0 {
entry:
  %_ptr.addr = alloca ptr, align 8
  store ptr %_ptr, ptr %_ptr.addr, align 8
  %0 = load ptr, ptr %_ptr.addr, align 8
  %tobool = icmp ne ptr %0, null
  br i1 %tobool, label %if.then, label %if.end

if.then:                                          ; preds = %entry
  %1 = load ptr, ptr %_ptr.addr, align 8
  call void @qapi_free_MigrationChannel(ptr noundef %1)
  br label %if.end

if.end:                                           ; preds = %if.then, %entry
  ret void
}

; Function Attrs: nounwind sspstrong uwtable
define internal zeroext i1 @transport_supports_multi_channels(ptr noundef %saddr) #0 {
entry:
  %saddr.addr = alloca ptr, align 8
  store ptr %saddr, ptr %saddr.addr, align 8
  %0 = load ptr, ptr %saddr.addr, align 8
  %type = getelementptr inbounds %struct.SocketAddress, ptr %0, i32 0, i32 0
  %1 = load i32, ptr %type, align 8
  %cmp = icmp eq i32 %1, 0
  br i1 %cmp, label %lor.end, label %lor.lhs.false

lor.lhs.false:                                    ; preds = %entry
  %2 = load ptr, ptr %saddr.addr, align 8
  %type1 = getelementptr inbounds %struct.SocketAddress, ptr %2, i32 0, i32 0
  %3 = load i32, ptr %type1, align 8
  %cmp2 = icmp eq i32 %3, 1
  br i1 %cmp2, label %lor.end, label %lor.rhs

lor.rhs:                                          ; preds = %lor.lhs.false
  %4 = load ptr, ptr %saddr.addr, align 8
  %type3 = getelementptr inbounds %struct.SocketAddress, ptr %4, i32 0, i32 0
  %5 = load i32, ptr %type3, align 8
  %cmp4 = icmp eq i32 %5, 2
  br label %lor.end

lor.end:                                          ; preds = %lor.rhs, %lor.lhs.false, %entry
  %6 = phi i1 [ true, %lor.lhs.false ], [ true, %entry ], [ %cmp4, %lor.rhs ]
  ret i1 %6
}

; Function Attrs: nounwind sspstrong uwtable
define internal zeroext i1 @migration_needs_multiple_sockets() #0 {
entry:
  %call = call zeroext i1 @migrate_multifd()
  br i1 %call, label %lor.end, label %lor.rhs

lor.rhs:                                          ; preds = %entry
  %call1 = call zeroext i1 @migrate_postcopy_preempt()
  br label %lor.end

lor.end:                                          ; preds = %lor.rhs, %entry
  %0 = phi i1 [ true, %entry ], [ %call1, %lor.rhs ]
  ret i1 %0
}

; Function Attrs: nounwind sspstrong uwtable
define internal void @glib_autoptr_cleanup_MigrationChannel(ptr noundef %_ptr) #0 {
entry:
  %_ptr.addr = alloca ptr, align 8
  store ptr %_ptr, ptr %_ptr.addr, align 8
  %0 = load ptr, ptr %_ptr.addr, align 8
  %1 = load ptr, ptr %0, align 8
  call void @glib_autoptr_clear_MigrationChannel(ptr noundef %1)
  ret void
}

; Function Attrs: nounwind sspstrong uwtable
define internal zeroext i1 @migration_channels_and_transport_compatible(ptr noundef %addr, ptr noundef %errp) #0 {
entry:
  %retval = alloca i1, align 1
  %addr.addr = alloca ptr, align 8
  %errp.addr = alloca ptr, align 8
  store ptr %addr, ptr %addr.addr, align 8
  store ptr %errp, ptr %errp.addr, align 8
  %call = call zeroext i1 @migration_needs_multiple_sockets()
  br i1 %call, label %land.lhs.true, label %if.end

land.lhs.true:                                    ; preds = %entry
  %0 = load ptr, ptr %addr.addr, align 8
  %transport = getelementptr inbounds %struct.MigrationAddress, ptr %0, i32 0, i32 0
  %1 = load i32, ptr %transport, align 8
  %cmp = icmp eq i32 %1, 0
  br i1 %cmp, label %land.lhs.true1, label %if.end

land.lhs.true1:                                   ; preds = %land.lhs.true
  %2 = load ptr, ptr %addr.addr, align 8
  %u = getelementptr inbounds %struct.MigrationAddress, ptr %2, i32 0, i32 1
  %call2 = call zeroext i1 @transport_supports_multi_channels(ptr noundef %u)
  br i1 %call2, label %if.end, label %if.then

if.then:                                          ; preds = %land.lhs.true1
  %3 = load ptr, ptr %errp.addr, align 8
  call void (ptr, ptr, i32, ptr, ptr, ...) @error_setg_internal(ptr noundef %3, ptr noundef @.str.2, i32 noundef 145, ptr noundef @__func__.migration_channels_and_transport_compatible, ptr noundef @.str.80)
  store i1 false, ptr %retval, align 1
  br label %return

if.end:                                           ; preds = %land.lhs.true1, %land.lhs.true, %entry
  store i1 true, ptr %retval, align 1
  br label %return

return:                                           ; preds = %if.end, %if.then
  %4 = load i1, ptr %retval, align 1
  ret i1 %4
}

; Function Attrs: nounwind sspstrong uwtable
define dso_local ptr @migration_incoming_get_current() #0 {
entry:
  %0 = load ptr, ptr @current_incoming, align 8
  %tobool = icmp ne ptr %0, null
  br i1 %tobool, label %if.then, label %if.else

if.then:                                          ; preds = %entry
  br label %if.end

if.else:                                          ; preds = %entry
  call void @__assert_fail(ptr noundef @.str.6, ptr noundef @.str.2, i32 noundef 252, ptr noundef @__PRETTY_FUNCTION__.migration_incoming_get_current) #13
  unreachable

if.end:                                           ; preds = %if.then
  %1 = load ptr, ptr @current_incoming, align 8
  ret ptr %1
}

; Function Attrs: nounwind sspstrong uwtable
define internal void @qemu_start_incoming_migration(ptr noundef %uri, i1 noundef zeroext %has_channels, ptr noundef %channels, ptr noundef %errp) #0 {
entry:
  %uri.addr = alloca ptr, align 8
  %has_channels.addr = alloca i8, align 1
  %channels.addr = alloca ptr, align 8
  %errp.addr = alloca ptr, align 8
  %channel = alloca ptr, align 8
  %addr = alloca ptr, align 8
  %mis = alloca ptr, align 8
  %cleanup.dest.slot = alloca i32, align 4
  %saddr = alloca ptr, align 8
  store ptr %uri, ptr %uri.addr, align 8
  %frombool = zext i1 %has_channels to i8
  store i8 %frombool, ptr %has_channels.addr, align 1
  store ptr %channels, ptr %channels.addr, align 8
  store ptr %errp, ptr %errp.addr, align 8
  store ptr null, ptr %channel, align 8
  store ptr null, ptr %addr, align 8
  %call = call ptr @migration_incoming_get_current()
  store ptr %call, ptr %mis, align 8
  %0 = load ptr, ptr %uri.addr, align 8
  %tobool = icmp ne ptr %0, null
  br i1 %tobool, label %land.lhs.true, label %if.else

land.lhs.true:                                    ; preds = %entry
  %1 = load i8, ptr %has_channels.addr, align 1
  %tobool1 = trunc i8 %1 to i1
  br i1 %tobool1, label %if.then, label %if.else

if.then:                                          ; preds = %land.lhs.true
  %2 = load ptr, ptr %errp.addr, align 8
  call void (ptr, ptr, i32, ptr, ptr, ...) @error_setg_internal(ptr noundef %2, ptr noundef @.str.2, i32 noundef 529, ptr noundef @__func__.qemu_start_incoming_migration, ptr noundef @.str.78)
  store i32 1, ptr %cleanup.dest.slot, align 4
  br label %cleanup

if.else:                                          ; preds = %land.lhs.true, %entry
  %3 = load ptr, ptr %channels.addr, align 8
  %tobool2 = icmp ne ptr %3, null
  br i1 %tobool2, label %if.then3, label %if.else7

if.then3:                                         ; preds = %if.else
  %4 = load ptr, ptr %channels.addr, align 8
  %next = getelementptr inbounds %struct.MigrationChannelList, ptr %4, i32 0, i32 0
  %5 = load ptr, ptr %next, align 8
  %tobool4 = icmp ne ptr %5, null
  br i1 %tobool4, label %if.then5, label %if.end

if.then5:                                         ; preds = %if.then3
  %6 = load ptr, ptr %errp.addr, align 8
  call void (ptr, ptr, i32, ptr, ptr, ...) @error_setg_internal(ptr noundef %6, ptr noundef @.str.2, i32 noundef 534, ptr noundef @__func__.qemu_start_incoming_migration, ptr noundef @.str.36)
  store i32 1, ptr %cleanup.dest.slot, align 4
  br label %cleanup

if.end:                                           ; preds = %if.then3
  %7 = load ptr, ptr %channels.addr, align 8
  %value = getelementptr inbounds %struct.MigrationChannelList, ptr %7, i32 0, i32 1
  %8 = load ptr, ptr %value, align 8
  %addr6 = getelementptr inbounds %struct.MigrationChannel, ptr %8, i32 0, i32 1
  %9 = load ptr, ptr %addr6, align 8
  store ptr %9, ptr %addr, align 8
  br label %if.end16

if.else7:                                         ; preds = %if.else
  %10 = load ptr, ptr %uri.addr, align 8
  %tobool8 = icmp ne ptr %10, null
  br i1 %tobool8, label %if.then9, label %if.else14

if.then9:                                         ; preds = %if.else7
  %11 = load ptr, ptr %uri.addr, align 8
  %12 = load ptr, ptr %errp.addr, align 8
  %call10 = call zeroext i1 @migrate_uri_parse(ptr noundef %11, ptr noundef %channel, ptr noundef %12)
  br i1 %call10, label %if.end12, label %if.then11

if.then11:                                        ; preds = %if.then9
  store i32 1, ptr %cleanup.dest.slot, align 4
  br label %cleanup

if.end12:                                         ; preds = %if.then9
  %13 = load ptr, ptr %channel, align 8
  %addr13 = getelementptr inbounds %struct.MigrationChannel, ptr %13, i32 0, i32 1
  %14 = load ptr, ptr %addr13, align 8
  store ptr %14, ptr %addr, align 8
  br label %if.end15

if.else14:                                        ; preds = %if.else7
  %15 = load ptr, ptr %errp.addr, align 8
  call void (ptr, ptr, i32, ptr, ptr, ...) @error_setg_internal(ptr noundef %15, ptr noundef @.str.2, i32 noundef 546, ptr noundef @__func__.qemu_start_incoming_migration, ptr noundef @.str.79)
  store i32 1, ptr %cleanup.dest.slot, align 4
  br label %cleanup

if.end15:                                         ; preds = %if.end12
  br label %if.end16

if.end16:                                         ; preds = %if.end15, %if.end
  br label %if.end17

if.end17:                                         ; preds = %if.end16
  %16 = load ptr, ptr %addr, align 8
  %17 = load ptr, ptr %errp.addr, align 8
  %call18 = call zeroext i1 @migration_channels_and_transport_compatible(ptr noundef %16, ptr noundef %17)
  br i1 %call18, label %if.end20, label %if.then19

if.then19:                                        ; preds = %if.end17
  store i32 1, ptr %cleanup.dest.slot, align 4
  br label %cleanup

if.end20:                                         ; preds = %if.end17
  %18 = load ptr, ptr %mis, align 8
  %state = getelementptr inbounds %struct.MigrationIncomingState, ptr %18, i32 0, i32 28
  call void @migrate_set_state(ptr noundef %state, i32 noundef 0, i32 noundef 1)
  %19 = load ptr, ptr %addr, align 8
  %transport = getelementptr inbounds %struct.MigrationAddress, ptr %19, i32 0, i32 0
  %20 = load i32, ptr %transport, align 8
  %cmp = icmp eq i32 %20, 0
  br i1 %cmp, label %if.then21, label %if.else36

if.then21:                                        ; preds = %if.end20
  %21 = load ptr, ptr %addr, align 8
  %u = getelementptr inbounds %struct.MigrationAddress, ptr %21, i32 0, i32 1
  store ptr %u, ptr %saddr, align 8
  %22 = load ptr, ptr %saddr, align 8
  %type = getelementptr inbounds %struct.SocketAddress, ptr %22, i32 0, i32 0
  %23 = load i32, ptr %type, align 8
  %cmp22 = icmp eq i32 %23, 0
  br i1 %cmp22, label %if.then28, label %lor.lhs.false

lor.lhs.false:                                    ; preds = %if.then21
  %24 = load ptr, ptr %saddr, align 8
  %type23 = getelementptr inbounds %struct.SocketAddress, ptr %24, i32 0, i32 0
  %25 = load i32, ptr %type23, align 8
  %cmp24 = icmp eq i32 %25, 1
  br i1 %cmp24, label %if.then28, label %lor.lhs.false25

lor.lhs.false25:                                  ; preds = %lor.lhs.false
  %26 = load ptr, ptr %saddr, align 8
  %type26 = getelementptr inbounds %struct.SocketAddress, ptr %26, i32 0, i32 0
  %27 = load i32, ptr %type26, align 8
  %cmp27 = icmp eq i32 %27, 2
  br i1 %cmp27, label %if.then28, label %if.else29

if.then28:                                        ; preds = %lor.lhs.false25, %lor.lhs.false, %if.then21
  %28 = load ptr, ptr %saddr, align 8
  %29 = load ptr, ptr %errp.addr, align 8
  call void @socket_start_incoming_migration(ptr noundef %28, ptr noundef %29)
  br label %if.end35

if.else29:                                        ; preds = %lor.lhs.false25
  %30 = load ptr, ptr %saddr, align 8
  %type30 = getelementptr inbounds %struct.SocketAddress, ptr %30, i32 0, i32 0
  %31 = load i32, ptr %type30, align 8
  %cmp31 = icmp eq i32 %31, 3
  br i1 %cmp31, label %if.then32, label %if.end34

if.then32:                                        ; preds = %if.else29
  %32 = load ptr, ptr %saddr, align 8
  %u33 = getelementptr inbounds %struct.SocketAddress, ptr %32, i32 0, i32 1
  %str = getelementptr inbounds %struct.String, ptr %u33, i32 0, i32 0
  %33 = load ptr, ptr %str, align 8
  %34 = load ptr, ptr %errp.addr, align 8
  call void @fd_start_incoming_migration(ptr noundef %33, ptr noundef %34)
  br label %if.end34

if.end34:                                         ; preds = %if.then32, %if.else29
  br label %if.end35

if.end35:                                         ; preds = %if.end34, %if.then28
  br label %if.end49

if.else36:                                        ; preds = %if.end20
  %35 = load ptr, ptr %addr, align 8
  %transport37 = getelementptr inbounds %struct.MigrationAddress, ptr %35, i32 0, i32 0
  %36 = load i32, ptr %transport37, align 8
  %cmp38 = icmp eq i32 %36, 1
  br i1 %cmp38, label %if.then39, label %if.else41

if.then39:                                        ; preds = %if.else36
  %37 = load ptr, ptr %addr, align 8
  %u40 = getelementptr inbounds %struct.MigrationAddress, ptr %37, i32 0, i32 1
  %args = getelementptr inbounds %struct.MigrationExecCommand, ptr %u40, i32 0, i32 0
  %38 = load ptr, ptr %args, align 8
  %39 = load ptr, ptr %errp.addr, align 8
  call void @exec_start_incoming_migration(ptr noundef %38, ptr noundef %39)
  br label %if.end48

if.else41:                                        ; preds = %if.else36
  %40 = load ptr, ptr %addr, align 8
  %transport42 = getelementptr inbounds %struct.MigrationAddress, ptr %40, i32 0, i32 0
  %41 = load i32, ptr %transport42, align 8
  %cmp43 = icmp eq i32 %41, 3
  br i1 %cmp43, label %if.then44, label %if.else46

if.then44:                                        ; preds = %if.else41
  %42 = load ptr, ptr %addr, align 8
  %u45 = getelementptr inbounds %struct.MigrationAddress, ptr %42, i32 0, i32 1
  %43 = load ptr, ptr %errp.addr, align 8
  call void @file_start_incoming_migration(ptr noundef %u45, ptr noundef %43)
  br label %if.end47

if.else46:                                        ; preds = %if.else41
  %44 = load ptr, ptr %errp.addr, align 8
  %45 = load ptr, ptr %uri.addr, align 8
  call void (ptr, ptr, i32, ptr, ptr, ...) @error_setg_internal(ptr noundef %44, ptr noundef @.str.2, i32 noundef 588, ptr noundef @__func__.qemu_start_incoming_migration, ptr noundef @.str.19, ptr noundef %45)
  br label %if.end47

if.end47:                                         ; preds = %if.else46, %if.then44
  br label %if.end48

if.end48:                                         ; preds = %if.end47, %if.then39
  br label %if.end49

if.end49:                                         ; preds = %if.end48, %if.end35
  store i32 0, ptr %cleanup.dest.slot, align 4
  br label %cleanup

cleanup:                                          ; preds = %if.end49, %if.then19, %if.else14, %if.then11, %if.then5, %if.then
  call void @glib_autoptr_cleanup_MigrationChannel(ptr noundef %channel)
  %cleanup.dest = load i32, ptr %cleanup.dest.slot, align 4
  switch i32 %cleanup.dest, label %unreachable [
    i32 0, label %cleanup.cont
    i32 1, label %cleanup.cont
  ]

cleanup.cont:                                     ; preds = %cleanup, %cleanup
  ret void

unreachable:                                      ; preds = %cleanup
  unreachable
}