; Function Attrs: nounwind sspstrong uwtable
define internal fastcc void @qemu_start_incoming_migration(ptr noundef %uri, i1 noundef zeroext %has_channels, ptr noundef readonly %channels, ptr noundef nonnull %errp) unnamed_addr #0 {
entry:
  %channel = alloca ptr, align 8
  store ptr null, ptr %channel, align 8
  %0 = load ptr, ptr @current_incoming, align 8
  %tobool.not.i = icmp eq ptr %0, null
  br i1 %tobool.not.i, label %if.else.i, label %migration_incoming_get_current.exit

if.else.i:                                        ; preds = %entry
  tail call void @__assert_fail(ptr noundef nonnull @.str.6, ptr noundef nonnull @.str.2, i32 noundef 252, ptr noundef nonnull @__PRETTY_FUNCTION__.migration_incoming_get_current) #20
  unreachable

migration_incoming_get_current.exit:              ; preds = %entry
  %tobool.not = icmp ne ptr %uri, null
  %brmerge.not = and i1 %tobool.not, %has_channels
  br i1 %brmerge.not, label %if.then, label %if.else

if.then:                                          ; preds = %migration_incoming_get_current.exit
  tail call void (ptr, ptr, i32, ptr, ptr, ...) @error_setg_internal(ptr noundef nonnull %errp, ptr noundef nonnull @.str.2, i32 noundef 529, ptr noundef nonnull @__func__.qemu_start_incoming_migration, ptr noundef nonnull @.str.78) #19
  br label %cleanup

if.else:                                          ; preds = %migration_incoming_get_current.exit
  %tobool2.not = icmp eq ptr %channels, null
  br i1 %tobool2.not, label %if.else7, label %if.then3

if.then3:                                         ; preds = %if.else
  %1 = load ptr, ptr %channels, align 8
  %tobool4.not = icmp eq ptr %1, null
  br i1 %tobool4.not, label %if.end, label %if.then5

if.then5:                                         ; preds = %if.then3
  tail call void (ptr, ptr, i32, ptr, ptr, ...) @error_setg_internal(ptr noundef nonnull %errp, ptr noundef nonnull @.str.2, i32 noundef 534, ptr noundef nonnull @__func__.qemu_start_incoming_migration, ptr noundef nonnull @.str.36) #19
  br label %cleanup

if.end:                                           ; preds = %if.then3
  %value = getelementptr inbounds nuw i8, ptr %channels, i64 8
  br label %if.end17

if.else7:                                         ; preds = %if.else
  br i1 %tobool.not, label %if.then9, label %if.else14

if.then9:                                         ; preds = %if.else7
  %call10 = call zeroext i1 @migrate_uri_parse(ptr noundef nonnull %uri, ptr noundef nonnull %channel, ptr noundef nonnull %errp)
  br i1 %call10, label %if.end17, label %cleanup

if.else14:                                        ; preds = %if.else7
  tail call void (ptr, ptr, i32, ptr, ptr, ...) @error_setg_internal(ptr noundef nonnull %errp, ptr noundef nonnull @.str.2, i32 noundef 546, ptr noundef nonnull @__func__.qemu_start_incoming_migration, ptr noundef nonnull @.str.79) #19
  br label %cleanup

if.end17:                                         ; preds = %if.then9, %if.end
  %.pn.in = phi ptr [ %value, %if.end ], [ %channel, %if.then9 ]
  %.pn = load ptr, ptr %.pn.in, align 8
  %addr.0.in = getelementptr inbounds nuw i8, ptr %.pn, i64 8
  %addr.0 = load ptr, ptr %addr.0.in, align 8
  %call.i.i = tail call zeroext i1 @migrate_multifd() #19
  br i1 %call.i.i, label %land.lhs.true.i, label %migration_needs_multiple_sockets.exit.i

migration_needs_multiple_sockets.exit.i:          ; preds = %if.end17
  %call1.i.i = tail call zeroext i1 @migrate_postcopy_preempt() #19
  br i1 %call1.i.i, label %land.lhs.true.i, label %if.end20

land.lhs.true.i:                                  ; preds = %migration_needs_multiple_sockets.exit.i, %if.end17
  %2 = load i32, ptr %addr.0, align 8
  %cmp.i = icmp eq i32 %2, 0
  br i1 %cmp.i, label %land.lhs.true1.i, label %if.end20

land.lhs.true1.i:                                 ; preds = %land.lhs.true.i
  %u.i = getelementptr inbounds nuw i8, ptr %addr.0, i64 8
  %u.val.i = load i32, ptr %u.i, align 8
  %switch.i.i = icmp ult i32 %u.val.i, 3
  br i1 %switch.i.i, label %if.end20, label %migration_channels_and_transport_compatible.exit

migration_channels_and_transport_compatible.exit: ; preds = %land.lhs.true1.i
  tail call void (ptr, ptr, i32, ptr, ptr, ...) @error_setg_internal(ptr noundef nonnull %errp, ptr noundef nonnull @.str.2, i32 noundef 145, ptr noundef nonnull @__func__.migration_channels_and_transport_compatible, ptr noundef nonnull @.str.80) #19
  br label %cleanup

if.end20:                                         ; preds = %land.lhs.true1.i, %land.lhs.true.i, %migration_needs_multiple_sockets.exit.i
  %state = getelementptr inbounds nuw i8, ptr %0, i64 568
  tail call void @migrate_set_state(ptr noundef nonnull %state, i32 noundef 0, i32 noundef 1)
  %3 = load i32, ptr %addr.0, align 8
  switch i32 %3, label %if.else46 [
    i32 0, label %if.then21
    i32 1, label %if.then39
    i32 3, label %if.then44
  ]

if.then21:                                        ; preds = %if.end20
  %u = getelementptr inbounds nuw i8, ptr %addr.0, i64 8
  %4 = load i32, ptr %u, align 8
  switch i32 %4, label %cleanup [
    i32 0, label %if.then28
    i32 1, label %if.then28
    i32 2, label %if.then28
    i32 3, label %if.then32
  ]

if.then28:                                        ; preds = %if.then21, %if.then21, %if.then21
  tail call void @socket_start_incoming_migration(ptr noundef nonnull %u, ptr noundef nonnull %errp) #19
  br label %cleanup

if.then32:                                        ; preds = %if.then21
  %u33 = getelementptr inbounds nuw i8, ptr %addr.0, i64 16
  %5 = load ptr, ptr %u33, align 8
  tail call void @fd_start_incoming_migration(ptr noundef %5, ptr noundef nonnull %errp) #19
  br label %cleanup

if.then39:                                        ; preds = %if.end20
  %u40 = getelementptr inbounds nuw i8, ptr %addr.0, i64 8
  %6 = load ptr, ptr %u40, align 8
  tail call void @exec_start_incoming_migration(ptr noundef %6, ptr noundef nonnull %errp) #19
  br label %cleanup

if.then44:                                        ; preds = %if.end20
  %u45 = getelementptr inbounds nuw i8, ptr %addr.0, i64 8
  tail call void @file_start_incoming_migration(ptr noundef nonnull %u45, ptr noundef nonnull %errp) #19
  br label %cleanup

if.else46:                                        ; preds = %if.end20
  tail call void (ptr, ptr, i32, ptr, ptr, ...) @error_setg_internal(ptr noundef nonnull %errp, ptr noundef nonnull @.str.2, i32 noundef 588, ptr noundef nonnull @__func__.qemu_start_incoming_migration, ptr noundef nonnull @.str.19, ptr noundef %uri) #19
  br label %cleanup

cleanup:                                          ; preds = %migration_channels_and_transport_compatible.exit, %if.then32, %if.then28, %if.then44, %if.else46, %if.then39, %if.then21, %if.then9, %if.else14, %if.then5, %if.then
  %channel.val = load ptr, ptr %channel, align 8
  %tobool.not.i.i = icmp eq ptr %channel.val, null
  br i1 %tobool.not.i.i, label %glib_autoptr_cleanup_MigrationChannel.exit, label %if.then.i.i

if.then.i.i:                                      ; preds = %cleanup
  tail call void @qapi_free_MigrationChannel(ptr noundef nonnull %channel.val) #19
  br label %glib_autoptr_cleanup_MigrationChannel.exit

glib_autoptr_cleanup_MigrationChannel.exit:       ; preds = %cleanup, %if.then.i.i
  ret void
}